EXPORTS
    _Z12nedf_cdfMeanPN7omnetpp10cComponentEPNS_6cValueEi @1
    _Z13RandomPatternPN7omnetpp10cComponentEPNS_6cValueEi @2
    _Z16getModuleFromParI10ControllerEPT_RN7omnetpp4cParEPKNS3_7cModuleE @3
    _Z3cdfPN7omnetpp4cRNGENSt7__cxx1112basic_stringIcSt11char_traitsIcESaIcEEE @4
    _Z7cdfMeanNSt7__cxx1112basic_stringIcSt11char_traitsIcESaIcEEE @5
    _Z8nedf_CdfPN7omnetpp10cComponentEPNS_6cValueEi @6
    _ZN10Connection11setCallbackEPNS_9ICallbackE @7
    _ZN10Connection13sendToUnicastEPN7omnetpp8cMessageE @8
    _ZN10Connection4bindExt @9
    _ZN10Connection6sendToEP6Packetxt @10
    _ZN10Controller10initializeEi @11
    _ZN10Controller13handleMessageEPN7omnetpp8cMessageE @12
    _ZN10Controller15updateAggrGroupEii @13
    _ZN10Controller16prepareAggrGroupERKNSt7__cxx1112basic_stringIcSt11char_traitsIcESaIcEEE @14
    _ZN10Controller21prepareTrafficPatternERKNSt7__cxx1112basic_stringIcSt11char_traitsIcESaIcEEE @15
    _ZN10Controller8setNodesEPKN7omnetpp9cTopologyE @16
    _ZN10ControllerC1Ev @17
    _ZN10ControllerC2Ev @18
    _ZN10ControllerD0Ev @19
    _ZN10ControllerD1Ev @20
    _ZN10ControllerD2Ev @21
    _ZN10NetBuilder10initializeEv @22
    _ZN10NetBuilder12buildNetworkEPN7omnetpp7cModuleE @23
    _ZN10NetBuilder13handleMessageEPN7omnetpp8cMessageE @24
    _ZN10NetBuilder7connectEPN7omnetpp5cGateES2_ddd @25
    _ZN10NetBuilderD0Ev @26
    _ZN10NetBuilderD1Ev @27
    _ZN10UnicastApp10initializeEi @28
    _ZN10UnicastApp11processSendEv @29
    _ZN10UnicastApp13handleMessageEPN7omnetpp8cMessageE @30
    _ZN10UnicastApp21connectionDataArrivedEP10ConnectionP6Packet @31
    _ZN10UnicastAppD0Ev @32
    _ZN10UnicastAppD1Ev @33
    _ZN10UnicastAppD2Ev @34
    _ZN15CdfDistribution3addENSt7__cxx1112basic_stringIcSt11char_traitsIcESaIcEEE @35
    _ZN15CdfDistribution3addENSt7__cxx1112basic_stringIcSt11char_traitsIcESaIcEEESt6vectorI8CdfPointSaIS7_EE @36
    _ZN15CdfDistribution3getENSt7__cxx1112basic_stringIcSt11char_traitsIcESaIcEEE @37
    _ZN15CdfDistribution5tableB5cxx11E @38 DATA
    _ZN15CdfDistributionC1ESt6vectorI8CdfPointSaIS1_EE @39
    _ZN15CdfDistributionC2ESt6vectorI8CdfPointSaIS1_EE @40
    _ZN16PacketDescriptorC1Ev @41
    _ZN16PacketDescriptorC2Ev @42
    _ZN16PacketDescriptorD0Ev @43
    _ZN16PacketDescriptorD1Ev @44
    _ZN16PacketDescriptorD2Ev @45
    _ZN16ThroughputFilter13receiveSignalEPN7omnetpp13cResultFilterERKNS0_7SimTimeEPNS0_7cObjectES7_ @46
    _ZN16ThroughputFilter13receiveSignalEPN7omnetpp13cResultFilterERKNS0_7SimTimeExPNS0_7cObjectE @47
    _ZN16ThroughputFilter14emitThroughputEN7omnetpp7SimTimeEPNS0_7cObjectE @48
    _ZN16ThroughputFilter4initEPN7omnetpp13cResultFilter7ContextE @49
    _ZN16ThroughputFilter6finishEPN7omnetpp10cComponentEi @50
    _ZN16ThroughputFilterD0Ev @51
    _ZN16ThroughputFilterD1Ev @52
    _ZN6Packet10setSrcAddrEx @53
    _ZN6Packet11setDestAddrEx @54
    _ZN6Packet11setDestPortEt @55
    _ZN6Packet12parsimUnpackEPN7omnetpp11cCommBufferE @56
    _ZN6Packet12setLocalPortEt @57
    _ZN6Packet12setSeqNumberEx @58
    _ZN6Packet13setPacketTypeEs @59
    _ZN6Packet4copyERKS_ @60
    _ZN6Packet6setECEEb @61
    _ZN6Packet6setECNEb @62
    _ZN6PacketC1EPKcs @63
    _ZN6PacketC1ERKS_ @64
    _ZN6PacketC2EPKcs @65
    _ZN6PacketC2ERKS_ @66
    _ZN6PacketD0Ev @67
    _ZN6PacketD1Ev @68
    _ZN6PacketD2Ev @69
    _ZN6PacketaSERKS_ @70
    _ZN7L2Queue10initializeEv @71
    _ZN7L2Queue13handleMessageEPN7omnetpp8cMessageE @72
    _ZN7L2Queue17startTransmittingEPN7omnetpp8cMessageE @73
    _ZN7L2QueueD0Ev @74
    _ZN7L2QueueD1Ev @75
    _ZN7L2QueueD2Ev @76
    _ZN7Routing10initializeEi @77
    _ZN7Routing13handleMessageEPN7omnetpp8cMessageE @78
    _ZN7Routing17getRouteGateIndexEii @79
    _ZN7RoutingD0Ev @80
    _ZN7RoutingD1Ev @81
    _ZN7omnetpp10cComponent10initializeEi @82
    _ZN7omnetpp10cComponent12recordScalarEPKcNS_7SimTimeES2_ @83
    _ZN7omnetpp10cComponent4emitEiPKNS_7cObjectEPS1_ @84
    _ZN7omnetpp10cComponent4emitEicPNS_7cObjectE @85
    _ZN7omnetpp10cComponent4emitEiePNS_7cObjectE @86
    _ZN7omnetpp10cComponent4emitEifPNS_7cObjectE @87
    _ZN7omnetpp10cComponent4emitEihPNS_7cObjectE @88
    _ZN7omnetpp10cComponent4emitEiiPNS_7cObjectE @89
    _ZN7omnetpp10cComponent4emitEijPNS_7cObjectE @90
    _ZN7omnetpp10cComponent4emitEilPNS_7cObjectE @91
    _ZN7omnetpp10cComponent4emitEimPNS_7cObjectE @92
    _ZN7omnetpp10cComponent4emitEisPNS_7cObjectE @93
    _ZN7omnetpp10cComponent4emitEitPNS_7cObjectE @94
    _ZN7omnetpp10cComponent4emitEixPNS_7cObjectE @95
    _ZN7omnetpp10cComponent4emitEiyPNS_7cObjectE @96
    _ZN7omnetpp10cComponent9setRNGMapEsPi @97
    _ZN7omnetpp10cException10setMessageEPKc @98
    _ZN7omnetpp10cException14prependMessageEPKc @99
    _ZN7omnetpp10cNullEnvir15getUniqueNumberEv @100
    _ZN7omnetpp10cNullEnvir9getConfigEv @101
    _ZN7omnetpp12cNamedObject14getNamePoolingEv @102
    _ZN7omnetpp13cResultFilter4initEPNS_10cComponentEPNS_9cPropertyE @103
    _ZN7omnetpp13cRuntimeErrorD0Ev @104
    _ZN7omnetpp13cRuntimeErrorD1Ev @105
    _ZN7omnetpp13cSimpleModule10sendDirectEPNS_8cMessageENS_7SimTimeES3_PNS_5cGateE @106
    _ZN7omnetpp13cSimpleModule10sendDirectEPNS_8cMessageENS_7SimTimeES3_PNS_7cModuleEPKci @107
    _ZN7omnetpp13cSimpleModule10sendDirectEPNS_8cMessageENS_7SimTimeES3_PNS_7cModuleEi @108
    _ZN7omnetpp13cSimpleModule10sendDirectEPNS_8cMessageEPNS_5cGateE @109
    _ZN7omnetpp13cSimpleModule10sendDirectEPNS_8cMessageEPNS_7cModuleEPKci @110
    _ZN7omnetpp13cSimpleModule10sendDirectEPNS_8cMessageEPNS_7cModuleEi @111
    _ZN7omnetpp13cSimpleModule10sendDirectEPNS_8cMessageERKNS_11SendOptionsEPNS_7cModuleEPKci @112
    _ZN7omnetpp13cSimpleModule10sendDirectEPNS_8cMessageERKNS_11SendOptionsEPNS_7cModuleEi @113
    _ZN7omnetpp13cSimpleModule11sendDelayedEPNS_8cMessageENS_7SimTimeEPKci @114
    _ZN7omnetpp13cSimpleModule11sendDelayedEPNS_8cMessageENS_7SimTimeEPNS_5cGateE @115
    _ZN7omnetpp13cSimpleModule11sendDelayedEPNS_8cMessageENS_7SimTimeEi @116
    _ZN7omnetpp13cSimpleModule4sendEPNS_8cMessageEPKci @117
    _ZN7omnetpp13cSimpleModule4sendEPNS_8cMessageEPNS_5cGateE @118
    _ZN7omnetpp13cSimpleModule4sendEPNS_8cMessageERKNS_11SendOptionsEPKci @119
    _ZN7omnetpp13cSimpleModule4sendEPNS_8cMessageERKNS_11SendOptionsEi @120
    _ZN7omnetpp13cSimpleModule4sendEPNS_8cMessageEi @121
    _ZN7omnetpp14check_and_castIP6PacketNS_7cObjectEEET_PT0_ @122
    _ZN7omnetpp14check_and_castIPNS_11cValueArrayENS_7cObjectEEET_PT0_ @123
    _ZN7omnetpp14check_and_castIPNS_7cPacketENS_8cMessageEEET_PT0_ @124
    _ZN7omnetpp15cResultListener6finishEPNS_13cResultFilterE @125
    _ZN7omnetpp16checked_int_castIixEET_T0_PKNS_7cObjectEPKc @126
    _ZN7omnetpp16checked_int_castItxEET_T0_PKNS_7cObjectEPKc @127
    _ZN7omnetpp16checked_int_castItxEET_T0_PKc @128
    _ZN7omnetpp23cNoncopyableOwnedObject12parsimUnpackEPNS_11cCommBufferE @129
    _ZN7omnetpp7cModule27setBuiltinAnimationsAllowedEb @130
    _ZN7omnetpp7cPacket11setBitErrorEb @131
    _ZN7omnetpp8cMessage10getParListEv @132
    _ZN7omnetpp8cMessage12removeObjectEPKc @133
    _ZN7omnetpp8cMessage12removeObjectEPNS_7cObjectE @134
    _ZN7omnetpp8cMessage6addParEPKc @135
    _ZN7omnetpp8cMessage6addParEPNS_7cMsgParE @136
    _ZN7omnetpp8cMessage9addObjectEPNS_7cObjectE @137
    _ZN7omnetpp8cMessage9getObjectEPKc @138
    _ZN7omnetpp8cMessage9hasObjectEPKc @139
    _ZN7omnetpp9cTopology4LinkD0Ev @140
    _ZN7omnetpp9cTopology4LinkD1Ev @141
    _ZN7omnetpp9cTopology4NodeD0Ev @142
    _ZN7omnetpp9cTopology4NodeD1Ev @143
    _ZNK10Controller10askForDestEi @144
    _ZNK10Controller11askForGroupEi @145
    _ZNK10Controller12getGroupInfoEiiRKSt3mapIiS0_IiiSt4lessIiESaISt4pairIKiiEEES2_SaIS3_IS4_S7_EEE @146
    _ZNK10Controller13isGroupTargetEi @147
    _ZNK10Controller13numInitStagesEv @148
    _ZNK10Controller15getGroupAggrNumEii @149
    _ZNK10Controller17getAggrSendersNumEi @150
    _ZNK10Controller18getGroupAggrBufferEii @151
    _ZNK10Controller19isAggrGroupOnRouterEii @152
    _ZNK10Controller9getRoutesEPN7omnetpp7cModuleEi @153
    _ZNK10UnicastApp13numInitStagesEv @154
    _ZNK15CdfDistribution4meanEv @155
    _ZNK15CdfDistribution6randomEPN7omnetpp4cRNGE @156
    _ZNK16PacketDescriptor11doesSupportEPN7omnetpp7cObjectE @157
    _ZNK16PacketDescriptor11getPropertyEPKc @158
    _ZNK16PacketDescriptor12getFieldNameEi @159
    _ZNK16PacketDescriptor13getFieldCountEv @160
    _ZNK16PacketDescriptor13getFieldValueEN7omnetpp7any_ptrEii @161
    _ZNK16PacketDescriptor13setFieldValueEN7omnetpp7any_ptrEiiRKNS0_6cValueE @162
    _ZNK16PacketDescriptor16getFieldPropertyEiPKc @163
    _ZNK16PacketDescriptor16getPropertyNamesEv @164
    _ZNK16PacketDescriptor17getFieldArraySizeEN7omnetpp7any_ptrEi @165
    _ZNK16PacketDescriptor17getFieldTypeFlagsEi @166
    _ZNK16PacketDescriptor17setFieldArraySizeEN7omnetpp7any_ptrEii @167
    _ZNK16PacketDescriptor18getFieldStructNameEi @168
    _ZNK16PacketDescriptor18getFieldTypeStringEi @169
    _ZNK16PacketDescriptor21getFieldPropertyNamesEi @170
    _ZNK16PacketDescriptor21getFieldValueAsStringB5cxx11EN7omnetpp7any_ptrEii @171
    _ZNK16PacketDescriptor21setFieldValueAsStringEN7omnetpp7any_ptrEiiPKc @172
    _ZNK16PacketDescriptor25getFieldDynamicTypeStringEN7omnetpp7any_ptrEii @173
    _ZNK16PacketDescriptor26getFieldStructValuePointerEN7omnetpp7any_ptrEii @174
    _ZNK16PacketDescriptor26setFieldStructValuePointerEN7omnetpp7any_ptrEiiS1_ @175
    _ZNK16PacketDescriptor9findFieldEPKc @176
    _ZNK16ThroughputFilter5cloneEv @177
    _ZNK6Packet10getSrcAddrEv @178
    _ZNK6Packet10parsimPackEPN7omnetpp11cCommBufferE @179
    _ZNK6Packet11getDestAddrEv @180
    _ZNK6Packet11getDestPortEv @181
    _ZNK6Packet12getLocalPortEv @182
    _ZNK6Packet12getSeqNumberEv @183
    _ZNK6Packet13getPacketTypeEv @184
    _ZNK6Packet3dupEv @185
    _ZNK6Packet6getECEEv @186
    _ZNK6Packet6getECNEv @187
    _ZNK7L2Queue14refreshDisplayEv @188
    _ZNK7Routing13numInitStagesEv @189
    _ZNK7Routing14refreshDisplayEv @190
    _ZNK7omnetpp10cComponent10chi_squareEji @191
    _ZNK7omnetpp10cComponent10intuniformEiii @192
    _ZNK7omnetpp10cComponent11exponentialENS_7SimTimeEi @193
    _ZNK7omnetpp10cComponent11exponentialEdi @194
    _ZNK7omnetpp10cComponent11negbinomialEidi @195
    _ZNK7omnetpp10cComponent11truncnormalENS_7SimTimeES1_i @196
    _ZNK7omnetpp10cComponent11truncnormalEddi @197
    _ZNK7omnetpp10cComponent12getNumParamsEv @198
    _ZNK7omnetpp10cComponent13numInitStagesEv @199
    _ZNK7omnetpp10cComponent14getDisplayNameEv @200
    _ZNK7omnetpp10cComponent14intuniformexclEiii @201
    _ZNK7omnetpp10cComponent14pareto_shiftedEdddi @202
    _ZNK7omnetpp10cComponent4betaEddi @203
    _ZNK7omnetpp10cComponent6cauchyEddi @204
    _ZNK7omnetpp10cComponent6normalENS_7SimTimeES1_i @205
    _ZNK7omnetpp10cComponent6normalEddi @206
    _ZNK7omnetpp10cComponent6triangEdddi @207
    _ZNK7omnetpp10cComponent7dblrandEi @208
    _ZNK7omnetpp10cComponent7gamma_dEddi @209
    _ZNK7omnetpp10cComponent7intrandEji @210
    _ZNK7omnetpp10cComponent7poissonEdi @211
    _ZNK7omnetpp10cComponent7uniformENS_7SimTimeES1_i @212
    _ZNK7omnetpp10cComponent7uniformEddi @213
    _ZNK7omnetpp10cComponent7weibullEddi @214
    _ZNK7omnetpp10cComponent8binomialEidi @215
    _ZNK7omnetpp10cComponent8erlang_kEjdi @216
    _ZNK7omnetpp10cComponent9bernoulliEdi @217
    _ZNK7omnetpp10cComponent9geometricEdi @218
    _ZNK7omnetpp10cComponent9lognormalEddi @219
    _ZNK7omnetpp10cComponent9student_tEji @220
    _ZNK7omnetpp10cException10getSimtimeEv @221
    _ZNK7omnetpp10cException10hasContextEv @222
    _ZNK7omnetpp10cException12getErrorCodeEv @223
    _ZNK7omnetpp10cException14getEventNumberEv @224
    _ZNK7omnetpp10cException18getContextFullPathEv @225
    _ZNK7omnetpp10cException18getSimulationStageEv @226
    _ZNK7omnetpp10cException19getContextClassNameEv @227
    _ZNK7omnetpp10cException21getContextComponentIdEv @228
    _ZNK7omnetpp10cException23getContextComponentKindEv @229
    _ZNK7omnetpp10cException4whatEv @230
    _ZNK7omnetpp10cException7isErrorEv @231
    _ZNK7omnetpp10cNullEnvir13isExpressModeEv @232
    _ZNK7omnetpp10cSoftOwner11isSoftOwnerEv @233
    _ZNK7omnetpp11cValueArray4sizeEv @234
    _ZNK7omnetpp12cNamedObject7getNameEv @235
    _ZNK7omnetpp12cOwnedObject13isOwnedObjectEv @236
    _ZNK7omnetpp12cOwnedObject8getOwnerEv @237
    _ZNK7omnetpp13cResultFilter21getInitialDoubleValueEv @238
    _ZNK7omnetpp13cRuntimeError3dupEv @239
    _ZNK7omnetpp15cResultListener17getDelegatedCountEv @240
    _ZNK7omnetpp15cResultListener17getSubscribeCountEv @241
    _ZNK7omnetpp23cNoncopyableOwnedObject10parsimPackEPNS_11cCommBufferE @242
    _ZNK7omnetpp7cModule13isPlaceholderEv @243
    _ZNK7omnetpp7cModule15getParentModuleEv @244
    _ZNK7omnetpp7cModule16getComponentKindEv @245
    _ZNK7omnetpp7cModule27getBuiltinAnimationsAllowedEv @246
    _ZNK7omnetpp7cObject11getFullNameEv @247
    _ZNK7omnetpp7cObject11isSoftOwnerEv @248
    _ZNK7omnetpp7cObject13isOwnedObjectEv @249
    _ZNK7omnetpp7cObject7getNameEv @250
    _ZNK7omnetpp7cObject8getOwnerEv @251
    _ZNK7omnetpp7cPacket11hasBitErrorEv @252
    _ZNK7omnetpp7cPacket12getBitLengthEv @253
    _ZNK7omnetpp7cPacket8isPacketEv @254
    _ZNK7omnetpp8cMessage12getSrcProcIdEv @255
    _ZNK7omnetpp8cMessage6hasParEPKc @256
    _ZNK7omnetpp8cMessage9isMessageEv @257
    _ZNK7omnetpp9cTopology11getNumNodesEv @258
    _ZNSt10_HashtableIPPvS1_SaIS1_ENSt8__detail9_IdentityESt8equal_toIS1_ESt4hashIS1_ENS3_18_Mod_range_hashingENS3_20_Default_ranged_hashENS3_20_Prime_rehash_policyENS3_17_Hashtable_traitsILb0ELb1ELb1EEEE9_M_rehashEyRKy @259
    _ZNSt10_HashtableIiSt4pairIKiiESaIS2_ENSt8__detail10_Select1stESt8equal_toIiESt4hashIiENS4_18_Mod_range_hashingENS4_20_Default_ranged_hashENS4_20_Prime_rehash_policyENS4_17_Hashtable_traitsILb0ELb0ELb1EEEE9_M_rehashEyRKy @260
    _ZNSt10_HashtableIiiSaIiENSt8__detail9_IdentityESt8equal_toIiESt4hashIiENS1_18_Mod_range_hashingENS1_20_Default_ranged_hashENS1_20_Prime_rehash_policyENS1_17_Hashtable_traitsILb0ELb1ELb1EEEE9_M_rehashEyRKy @261
    _ZNSt4pairIKNSt7__cxx1112basic_stringIcSt11char_traitsIcESaIcEEE15CdfDistributionED1Ev @262
    _ZNSt6vectorI8CdfPointSaIS0_EEC1ERKS2_ @263
    _ZNSt6vectorINSt7__cxx1112basic_stringIcSt11char_traitsIcESaIcEEESaIS5_EED1Ev @264
    _ZNSt6vectorIPN7omnetpp9cTopology7LinkOutESaIS3_EE17_M_realloc_insertIJS3_EEEvN9__gnu_cxx17__normal_iteratorIPS3_S5_EEDpOT_ @265
    _ZNSt6vectorIS_IiSaIiEESaIS1_EE17_M_realloc_insertIJRS1_EEEvN9__gnu_cxx17__normal_iteratorIPS1_S3_EEDpOT_ @266
    _ZNSt6vectorIiSaIiEE17_M_realloc_insertIJRKiEEEvN9__gnu_cxx17__normal_iteratorIPiS1_EEDpOT_ @267
    _ZNSt6vectorIiSaIiEE17_M_realloc_insertIJiEEEvN9__gnu_cxx17__normal_iteratorIPiS1_EEDpOT_ @268
    _ZNSt6vectorIxSaIxEE17_M_realloc_insertIJxEEEvN9__gnu_cxx17__normal_iteratorIPxS1_EEDpOT_ @269
    _ZNSt8_Rb_treeINSt7__cxx1112basic_stringIcSt11char_traitsIcESaIcEEESt4pairIKS5_15CdfDistributionESt10_Select1stIS9_ESt4lessIS5_ESaIS9_EE22_M_emplace_hint_uniqueIJRS7_S8_EEESt17_Rb_tree_iteratorIS9_ESt23_Rb_tree_const_iteratorIS9_EDpOT_ @270
    _ZNSt8_Rb_treeINSt7__cxx1112basic_stringIcSt11char_traitsIcESaIcEEESt4pairIKS5_15CdfDistributionESt10_Select1stIS9_ESt4lessIS5_ESaIS9_EE24_M_get_insert_unique_posERS7_ @271
    _ZNSt8_Rb_treeINSt7__cxx1112basic_stringIcSt11char_traitsIcESaIcEEESt4pairIKS5_15CdfDistributionESt10_Select1stIS9_ESt4lessIS5_ESaIS9_EE29_M_get_insert_hint_unique_posESt23_Rb_tree_const_iteratorIS9_ERS7_ @272
    _ZNSt8_Rb_treeIiSt4pairIKiSt6vectorIiSaIiEEESt10_Select1stIS5_ESt4lessIiESaIS5_EE29_M_get_insert_hint_unique_posESt23_Rb_tree_const_iteratorIS5_ERS1_ @273
    _ZNSt8__detail9_Map_baseIiSt4pairIKiiESaIS3_ENS_10_Select1stESt8equal_toIiESt4hashIiENS_18_Mod_range_hashingENS_20_Default_ranged_hashENS_20_Prime_rehash_policyENS_17_Hashtable_traitsILb0ELb0ELb1EEELb1EEixERS2_ @274
    _ZTI10Controller @275 DATA
    _ZTI10NetBuilder @276 DATA
    _ZTI10PacketType @277 DATA
    _ZTI10UnicastApp @278 DATA
    _ZTI16PacketDescriptor @279 DATA
    _ZTI16ThroughputFilter @280 DATA
    _ZTI6Packet @281 DATA
    _ZTI7L2Queue @282 DATA
    _ZTI7Routing @283 DATA
    _ZTIN10Connection9ICallbackE @284 DATA
    _ZTIN7omnetpp11noncopyableE @285 DATA
    _ZTIP6Packet @286 DATA
    _ZTIPN7omnetpp11cValueArrayE @287 DATA
    _ZTIPN7omnetpp13cSimpleModuleE @288 DATA
    _ZTIPN7omnetpp7cObjectE @289 DATA
    _ZTIPN7omnetpp7cPacketE @290 DATA
    _ZTS10Controller @291 DATA
    _ZTS10NetBuilder @292 DATA
    _ZTS10PacketType @293 DATA
    _ZTS10UnicastApp @294 DATA
    _ZTS16PacketDescriptor @295 DATA
    _ZTS16ThroughputFilter @296 DATA
    _ZTS6Packet @297 DATA
    _ZTS7L2Queue @298 DATA
    _ZTS7Routing @299 DATA
    _ZTSN10Connection9ICallbackE @300 DATA
    _ZTSN7omnetpp10cComponentE @301 DATA
    _ZTSN7omnetpp10cExceptionE @302 DATA
    _ZTSN7omnetpp10cIListenerE @303 DATA
    _ZTSN7omnetpp10cSoftOwnerE @304 DATA
    _ZTSN7omnetpp11cValueArrayE @305 DATA
    _ZTSN7omnetpp11noncopyableE @306 DATA
    _ZTSN7omnetpp12cNamedObjectE @307 DATA
    _ZTSN7omnetpp12cOwnedObjectE @308 DATA
    _ZTSN7omnetpp13cResultFilterE @309 DATA
    _ZTSN7omnetpp13cRuntimeErrorE @310 DATA
    _ZTSN7omnetpp13cSimpleModuleE @311 DATA
    _ZTSN7omnetpp15cResultListenerE @312 DATA
    _ZTSN7omnetpp15cValueContainerE @313 DATA
    _ZTSN7omnetpp16cClassDescriptorE @314 DATA
    _ZTSN7omnetpp19cObjectResultFilterE @315 DATA
    _ZTSN7omnetpp23cNoncopyableOwnedObjectE @316 DATA
    _ZTSN7omnetpp6cEventE @317 DATA
    _ZTSN7omnetpp7cModuleE @318 DATA
    _ZTSN7omnetpp7cObjectE @319 DATA
    _ZTSN7omnetpp7cPacketE @320 DATA
    _ZTSN7omnetpp8cMessageE @321 DATA
    _ZTSN7omnetpp9cTopology4LinkE @322 DATA
    _ZTSN7omnetpp9cTopology4NodeE @323 DATA
    _ZTSP6Packet @324 DATA
    _ZTSPN7omnetpp11cValueArrayE @325 DATA
    _ZTSPN7omnetpp13cSimpleModuleE @326 DATA
    _ZTSPN7omnetpp7cObjectE @327 DATA
    _ZTSPN7omnetpp7cPacketE @328 DATA
    _ZTV10Controller @329 DATA
    _ZTV10NetBuilder @330 DATA
    _ZTV10UnicastApp @331 DATA
    _ZTV16PacketDescriptor @332 DATA
    _ZTV16ThroughputFilter @333 DATA
    _ZTV6Packet @334 DATA
    _ZTV7L2Queue @335 DATA
    _ZTV7Routing @336 DATA
    _ZThn216_N10UnicastApp21connectionDataArrivedEP10ConnectionP6Packet @337
    _ZThn216_N10UnicastAppD0Ev @338
    _ZThn216_N10UnicastAppD1Ev @339
    _ZThn8_N16ThroughputFilter6finishEPN7omnetpp10cComponentEi @340
    _ZThn8_N16ThroughputFilterD0Ev @341
    _ZThn8_N16ThroughputFilterD1Ev @342
